; Function Attrs: mustprogress nofree norecurse nosync nounwind willreturn memory(argmem: write) uwtable
define void @Cec_ManSimSetDefaultParams(ptr noundef writeonly captures(none) initializes((0, 48)) %0) local_unnamed_addr #0 {
  %2 = getelementptr inbounds nuw i8, ptr %0, i64 32
  store i32 0, ptr %2, align 4
  store i32 31, ptr %0, align 4, !tbaa !16
  %3 = getelementptr inbounds nuw i8, ptr %0, i64 4
  store i32 100, ptr %3, align 4, !tbaa !18
  %4 = getelementptr inbounds nuw i8, ptr %0, i64 8
  store i32 20, ptr %4, align 4, !tbaa !19
  %5 = getelementptr inbounds nuw i8, ptr %0, i64 12
  store i32 3, ptr %5, align 4, !tbaa !20
  %6 = getelementptr inbounds nuw i8, ptr %0, i64 16
  %7 = getelementptr inbounds nuw i8, ptr %0, i64 36
  store i32 0, ptr %7, align 4, !tbaa !21
  %8 = getelementptr inbounds nuw i8, ptr %0, i64 40
  store i32 0, ptr %8, align 4, !tbaa !22
  %9 = getelementptr inbounds nuw i8, ptr %0, i64 44
  store i32 0, ptr %9, align 4, !tbaa !23
  tail call void @llvm.memset.p0.i64(ptr noundef nonnull align 4 dereferenceable(16) %6, i8 0, i64 16, i1 false)
  ret void
}